target datalayout = "e-m:e-p270:32:32-p271:32:32-p272:64:64-i64:64-i128:128-f80:128-n8:16:32:64-S128"
target triple = "x86_64-pc-linux-gnu"

%class.TimeStamp = type { i64 }

; Function Attrs: mustprogress nounwind uwtable
define hidden noundef double @_ZN10TimeHelper18counter_to_secondsEl(i64 noundef %0) #1 align 2 {
  %2 = alloca i64, align 8
  %3 = alloca double, align 8
  store i64 %0, ptr %2, align 8
  %4 = call noundef i64 @_ZN2os17elapsed_frequencyEv()
  %5 = sitofp i64 %4 to double
  store double %5, ptr %3, align 8
  %6 = load i64, ptr %2, align 8
  %7 = sitofp i64 %6 to double
  %8 = load double, ptr %3, align 8
  %9 = fdiv double %7, %8
  ret double %9
}

; Function Attrs: mustprogress nounwind uwtable
define hidden noundef double @_ZN10TimeHelper17counter_to_millisEl(i64 noundef %0) #1 align 2 {
  %2 = alloca i64, align 8
  store i64 %0, ptr %2, align 8
  %3 = load i64, ptr %2, align 8
  %4 = call noundef double @_ZN10TimeHelper18counter_to_secondsEl(i64 noundef %3)
  %5 = fmul double %4, 1.000000e+03
  ret double %5
}

; Function Attrs: mustprogress nounwind uwtable
define hidden noundef i64 @_ZNK9TimeStamp12millisecondsEv(ptr noundef nonnull align 8 dereferenceable(8) %0) #1 align 2 {
  %2 = alloca ptr, align 8
  %3 = alloca i64, align 8
  store ptr %0, ptr %2, align 8
  %4 = load ptr, ptr %2, align 8
  %5 = call noundef i64 @_ZN2os15elapsed_counterEv()
  store i64 %5, ptr %3, align 8
  %6 = load i64, ptr %3, align 8
  %7 = getelementptr inbounds %class.TimeStamp, ptr %4, i32 0, i32 0
  %8 = load i64, ptr %7, align 8
  %9 = sub nsw i64 %6, %8
  %10 = call noundef double @_ZN10TimeHelper17counter_to_millisEl(i64 noundef %9)
  %11 = fptosi double %10 to i64
  ret i64 %11
}