; Function Attrs: mustprogress nounwind uwtable
define hidden noundef i64 @_ZNK9TimeStamp12millisecondsEv(ptr nocapture noundef nonnull readonly align 8 dereferenceable(8) %0) local_unnamed_addr #0 align 2 {
  %2 = tail call noundef i64 @_ZN2os15elapsed_counterEv() #6
  %3 = load i64, ptr %0, align 8
  %4 = sub nsw i64 %2, %3
  %5 = tail call noundef i64 @_ZN2os17elapsed_frequencyEv() #6
  %6 = sitofp i64 %5 to double
  %7 = sitofp i64 %4 to double
  %8 = fdiv double %7, %6
  %9 = fmul double %8, 1.000000e+03
  %10 = fptosi double %9 to i64
  ret i64 %10
}